; Function Attrs: nounwind uwtable
define dso_local void @zend_register_long_constant(ptr noundef %0, i64 noundef %1, i64 noundef %2, i32 noundef %3, i32 noundef %4) local_unnamed_addr #0 {
  %6 = alloca %struct._zend_constant, align 8
  call void @llvm.lifetime.start.p0(i64 32, ptr nonnull %6) #11
  store i64 %2, ptr %6, align 8, !tbaa !4
  %7 = getelementptr inbounds nuw i8, ptr %6, i64 8
  store i32 4, ptr %7, align 8, !tbaa !4
  %8 = and i32 %3, 255
  %9 = shl i32 %4, 8
  %10 = or disjoint i32 %9, %8
  %11 = getelementptr inbounds nuw i8, ptr %6, i64 12
  store i32 %10, ptr %11, align 4, !tbaa !4
  %12 = load ptr, ptr @zend_string_init_interned, align 8, !tbaa !48
  %13 = and i32 %3, 1
  %14 = icmp ne i32 %13, 0
  %15 = tail call ptr %12(ptr noundef %0, i64 noundef %1, i1 noundef zeroext %14) #11
  %16 = getelementptr inbounds nuw i8, ptr %6, i64 16
  store ptr %15, ptr %16, align 8, !tbaa !10
  %17 = call i32 @zend_register_constant(ptr noundef nonnull %6)
  call void @llvm.lifetime.end.p0(i64 32, ptr nonnull %6) #11
  ret void
}